; Function Attrs: mustprogress nounwind uwtable
define void @_ZN6icu_759SPUStringD2Ev(ptr nocapture noundef nonnull readonly align 8 dereferenceable(12) %this) unnamed_addr #1 align 2 {
entry:
  %0 = load ptr, ptr %this, align 8
  %isnull.i = icmp eq ptr %0, null
  br i1 %isnull.i, label %_ZN6icu_7512LocalPointerINS_13UnicodeStringEED2Ev.exit, label %delete.notnull.i

delete.notnull.i:                                 ; preds = %entry
  %vtable.i = load ptr, ptr %0, align 8
  %vfn.i = getelementptr inbounds i8, ptr %vtable.i, i64 8
  %1 = load ptr, ptr %vfn.i, align 8
  tail call void %1(ptr noundef nonnull align 8 dereferenceable(64) %0) #10
  br label %_ZN6icu_7512LocalPointerINS_13UnicodeStringEED2Ev.exit

_ZN6icu_7512LocalPointerINS_13UnicodeStringEED2Ev.exit: ; preds = %entry, %delete.notnull.i
  ret void
}